target datalayout = "e-m:e-p270:32:32-p271:32:32-p272:64:64-i64:64-i128:128-f80:128-n8:16:32:64-S128"
target triple = "x86_64-pc-linux-gnu"

%union.pthread_mutex_t = type { %struct.__pthread_mutex_s }
%struct.__pthread_mutex_s = type { i32, i32, i32, i32, i32, i16, i16, %struct.__pthread_internal_list }
%struct.__pthread_internal_list = type { ptr, ptr }
%struct.sockaddr_storage = type { i16, [118 x i8], i64 }
%struct.job_record = type { i32, ptr, ptr, ptr, ptr, i16, i32, i32, i32, ptr, i32, ptr, ptr, i16, ptr, double, i64, ptr, ptr, ptr, ptr, ptr, ptr, i32, ptr, i32, i64, i64, i32, i32, ptr, i16, i64, i64, i8, i32, ptr, ptr, ptr, ptr, ptr, ptr, ptr, ptr, i32, ptr, ptr, i32, ptr, i32, ptr, i32, ptr, i32, ptr, ptr, ptr, ptr, ptr, ptr, i32, i16, i64, ptr, ptr, ptr, ptr, %struct.acct_policy_limit_set_t, i16, ptr, ptr, ptr, ptr, ptr, i32, ptr, ptr, ptr, ptr, ptr, i32, i32, ptr, ptr, ptr, i16, ptr, ptr, i8, ptr, ptr, i64, i64, i8, i32, i32, i8, i32, ptr, i32, i64, i32, ptr, ptr, ptr, i8, i16, i64, i32, ptr, ptr, ptr, ptr, ptr, i16, i32, ptr, ptr, ptr, ptr, i32, ptr, i32, i16, i64, ptr, i32, i32, ptr, i64, ptr, ptr, i64, i32, i32, i64, i32, i32, ptr, ptr, ptr, ptr, ptr, ptr, ptr, ptr, ptr, ptr, ptr, ptr, i32, ptr, i16, i16, i16, i16, ptr, i32, i32, i8, i64 }
%struct.acct_policy_limit_set_t = type { i16, i16, ptr }
%struct.slurm_msg = type { %struct.sockaddr_storage, ptr, i32, i32, i32, i8, i32, i8, i32, ptr, ptr, i32, ptr, ptr, i16, i8, i16, i16, %struct.forward, ptr, %struct.sockaddr_storage, ptr }
%struct.forward = type { %struct.slurm_node_alias_addrs_t, i16, i16, ptr, i32, i16, i16 }
%struct.slurm_node_alias_addrs_t = type { i64, ptr, ptr, i32, ptr }
%struct.job_alloc_info_msg = type { i32, ptr }

@stepmgr_mutex = dso_local global %union.pthread_mutex_t zeroinitializer, align 8
@.str.22 = private unnamed_addr constant [29 x i8] c"%s: pthread_mutex_lock(): %m\00", align 1
@.str.23 = private unnamed_addr constant [31 x i8] c"%s: pthread_mutex_unlock(): %m\00", align 1
@job_step_ptr = external global ptr, align 8
@.str.157 = private unnamed_addr constant [101 x i8] c"attempting to get job information for jobid %u from a different stepmgr jobid %u: %s RPC from uid=%u\00", align 1
@__func__._handle_het_job_alloc_info = private unnamed_addr constant [27 x i8] c"_handle_het_job_alloc_info\00", align 1

; Function Attrs: nounwind uwtable
define internal i32 @_handle_het_job_alloc_info(i32 noundef %0, ptr noundef %1, i32 noundef %2) #0 {
  %4 = alloca i32, align 4
  %5 = alloca i32, align 4
  %6 = alloca ptr, align 8
  %7 = alloca i32, align 4
  %8 = alloca i32, align 4
  %9 = alloca %struct.slurm_msg, align 8
  %10 = alloca ptr, align 8
  %11 = alloca ptr, align 8
  %12 = alloca ptr, align 8
  %13 = alloca i32, align 4
  %14 = alloca i32, align 4
  %15 = alloca i32, align 4
  store i32 %0, ptr %5, align 4
  store ptr %1, ptr %6, align 8
  store i32 %2, ptr %7, align 4
  call void @llvm.lifetime.start.p0(i64 4, ptr %8) #10
  call void @llvm.lifetime.start.p0(i64 424, ptr %9) #10
  call void @llvm.lifetime.start.p0(i64 8, ptr %10) #10
  call void @llvm.lifetime.start.p0(i64 8, ptr %11) #10
  store ptr null, ptr %11, align 8
  call void @llvm.lifetime.start.p0(i64 8, ptr %12) #10
  store ptr null, ptr %12, align 8
  %16 = load i32, ptr %5, align 4
  %17 = load i32, ptr %7, align 4
  %18 = call i32 @_handle_stepmgr_relay_msg(i32 noundef %16, i32 noundef %17, ptr noundef %9, i16 noundef zeroext 4027, i1 noundef zeroext true)
  store i32 %18, ptr %8, align 4
  %19 = icmp ne i32 %18, 0
  br i1 %19, label %20, label %21

20:                                               ; preds = %3
  br label %83

21:                                               ; preds = %3
  %22 = getelementptr inbounds nuw %struct.slurm_msg, ptr %9, i32 0, i32 13
  %23 = load ptr, ptr %22, align 8
  store ptr %23, ptr %10, align 8
  %24 = load ptr, ptr %10, align 8
  %25 = getelementptr inbounds nuw %struct.job_alloc_info_msg, ptr %24, i32 0, i32 0
  %26 = load i32, ptr %25, align 8
  %27 = load ptr, ptr @job_step_ptr, align 8
  %28 = getelementptr inbounds nuw %struct.job_record, ptr %27, i32 0, i32 53
  %29 = load i32, ptr %28, align 8
  %30 = icmp ne i32 %26, %29
  br i1 %30, label %31, label %43

31:                                               ; preds = %21
  %32 = load ptr, ptr %10, align 8
  %33 = getelementptr inbounds nuw %struct.job_alloc_info_msg, ptr %32, i32 0, i32 0
  %34 = load i32, ptr %33, align 8
  %35 = load ptr, ptr @job_step_ptr, align 8
  %36 = getelementptr inbounds nuw %struct.job_record, ptr %35, i32 0, i32 53
  %37 = load i32, ptr %36, align 8
  %38 = getelementptr inbounds nuw %struct.slurm_msg, ptr %9, i32 0, i32 16
  %39 = load i16, ptr %38, align 4
  %40 = call ptr @rpc_num2string(i16 noundef zeroext %39)
  %41 = load i32, ptr %7, align 4
  %42 = call i32 (ptr, ...) @error(ptr noundef @.str.157, i32 noundef %34, i32 noundef %37, ptr noundef %40, i32 noundef %41)
  store i32 2017, ptr %8, align 4
  br label %80

43:                                               ; preds = %21
  br label %44

44:                                               ; preds = %43
  call void @llvm.lifetime.start.p0(i64 4, ptr %13) #10
  %45 = call i32 @pthread_mutex_lock(ptr noundef @stepmgr_mutex) #10
  store i32 %45, ptr %13, align 4
  %46 = load i32, ptr %13, align 4
  %47 = icmp ne i32 %46, 0
  br i1 %47, label %48, label %51

48:                                               ; preds = %44
  %49 = load i32, ptr %13, align 4
  %50 = call ptr @__errno_location() #11
  store i32 %49, ptr %50, align 4
  call void (ptr, ...) @fatal_abort(ptr noundef @.str.22, ptr noundef @__func__._handle_het_job_alloc_info) #12
  unreachable

51:                                               ; preds = %44
  call void @llvm.lifetime.end.p0(i64 4, ptr %13) #10
  br label %52

52:                                               ; preds = %51
  br label %53

53:                                               ; preds = %52
  %54 = call ptr @list_create(ptr noundef @_het_job_alloc_list_del)
  store ptr %54, ptr %12, align 8
  %55 = load ptr, ptr @job_step_ptr, align 8
  %56 = call ptr @build_job_info_resp(ptr noundef %55)
  store ptr %56, ptr %11, align 8
  %57 = load ptr, ptr %12, align 8
  %58 = load ptr, ptr %11, align 8
  call void @list_append(ptr noundef %57, ptr noundef %58)
  br label %59

59:                                               ; preds = %53
  call void @llvm.lifetime.start.p0(i64 4, ptr %14) #10
  %60 = call i32 @pthread_mutex_unlock(ptr noundef @stepmgr_mutex) #10
  store i32 %60, ptr %14, align 4
  %61 = load i32, ptr %14, align 4
  %62 = icmp ne i32 %61, 0
  br i1 %62, label %63, label %66

63:                                               ; preds = %59
  %64 = load i32, ptr %14, align 4
  %65 = call ptr @__errno_location() #11
  store i32 %64, ptr %65, align 4
  call void (ptr, ...) @fatal_abort(ptr noundef @.str.23, ptr noundef @__func__._handle_het_job_alloc_info) #12
  unreachable

66:                                               ; preds = %59
  call void @llvm.lifetime.end.p0(i64 4, ptr %14) #10
  br label %67

67:                                               ; preds = %66
  br label %68

68:                                               ; preds = %67
  %69 = load ptr, ptr %12, align 8
  %70 = call i32 @send_msg_response(ptr noundef %9, i32 noundef 4026, ptr noundef %69)
  br label %71

71:                                               ; preds = %68
  %72 = load ptr, ptr %12, align 8
  %73 = icmp ne ptr %72, null
  br i1 %73, label %74, label %76

74:                                               ; preds = %71
  %75 = load ptr, ptr %12, align 8
  call void @list_destroy(ptr noundef %75)
  br label %76

76:                                               ; preds = %74, %71
  store ptr null, ptr %12, align 8
  br label %77

77:                                               ; preds = %76
  br label %78

78:                                               ; preds = %77
  call void @slurm_free_msg_members(ptr noundef %9)
  %79 = load i32, ptr %8, align 4
  store i32 %79, ptr %4, align 4
  store i32 1, ptr %15, align 4
  br label %85

80:                                               ; preds = %31
  %81 = load i32, ptr %8, align 4
  %82 = call i32 @slurm_send_rc_msg(ptr noundef %9, i32 noundef %81)
  call void @slurm_free_msg_members(ptr noundef %9)
  br label %83

83:                                               ; preds = %80, %20
  %84 = load i32, ptr %8, align 4
  store i32 %84, ptr %4, align 4
  store i32 1, ptr %15, align 4
  br label %85

85:                                               ; preds = %83, %78
  call void @llvm.lifetime.end.p0(i64 8, ptr %12) #10
  call void @llvm.lifetime.end.p0(i64 8, ptr %11) #10
  call void @llvm.lifetime.end.p0(i64 8, ptr %10) #10
  call void @llvm.lifetime.end.p0(i64 424, ptr %9) #10
  call void @llvm.lifetime.end.p0(i64 4, ptr %8) #10
  %86 = load i32, ptr %4, align 4
  ret i32 %86
}