; Function Attrs: nounwind uwtable
define internal fastcc void @_handle_het_job_alloc_info(i32 noundef %0, i32 noundef %1) unnamed_addr #0 {
  %3 = alloca %struct.slurm_msg, align 8
  call void @llvm.lifetime.start.p0(i64 424, ptr nonnull %3) #13
  %4 = call fastcc i32 @_handle_stepmgr_relay_msg(i32 noundef %0, i32 noundef %1, ptr noundef %3, i16 noundef zeroext 4027, i1 noundef zeroext true)
  %.not = icmp eq i32 %4, 0
  br i1 %.not, label %5, label %32

5:                                                ; preds = %2
  %6 = getelementptr inbounds nuw i8, ptr %3, i64 200
  %7 = load ptr, ptr %6, align 8
  %8 = load i32, ptr %7, align 8
  %9 = load ptr, ptr @job_step_ptr, align 8
  %10 = getelementptr inbounds nuw i8, ptr %9, i64 392
  %11 = load i32, ptr %10, align 8
  %.not24 = icmp eq i32 %8, %11
  br i1 %.not24, label %18, label %12

12:                                               ; preds = %5
  %13 = getelementptr inbounds nuw i8, ptr %3, i64 212
  %14 = load i16, ptr %13, align 4
  %15 = call ptr @rpc_num2string(i16 noundef zeroext %14) #13
  %16 = call i32 (ptr, ...) @error(ptr noundef nonnull @.str.157, i32 noundef %8, i32 noundef %11, ptr noundef %15, i32 noundef %1) #13
  %17 = call i32 @slurm_send_rc_msg(ptr noundef nonnull %3, i32 noundef 2017) #13
  br label %.sink.split

18:                                               ; preds = %5
  %19 = call i32 @pthread_mutex_lock(ptr noundef nonnull @stepmgr_mutex) #13
  %.not25 = icmp eq i32 %19, 0
  br i1 %.not25, label %22, label %20

20:                                               ; preds = %18
  %21 = tail call ptr @__errno_location() #14
  store i32 %19, ptr %21, align 4
  call void (ptr, ...) @fatal_abort(ptr noundef nonnull @.str.22, ptr noundef nonnull @__func__._handle_het_job_alloc_info) #15
  unreachable

22:                                               ; preds = %18
  %23 = call ptr @list_create(ptr noundef nonnull @_het_job_alloc_list_del) #13
  %24 = load ptr, ptr @job_step_ptr, align 8
  %25 = call ptr @build_job_info_resp(ptr noundef %24) #13
  call void @list_append(ptr noundef %23, ptr noundef %25) #13
  %26 = call i32 @pthread_mutex_unlock(ptr noundef nonnull @stepmgr_mutex) #13
  %.not26 = icmp eq i32 %26, 0
  br i1 %.not26, label %29, label %27

27:                                               ; preds = %22
  %28 = tail call ptr @__errno_location() #14
  store i32 %26, ptr %28, align 4
  call void (ptr, ...) @fatal_abort(ptr noundef nonnull @.str.23, ptr noundef nonnull @__func__._handle_het_job_alloc_info) #15
  unreachable

29:                                               ; preds = %22
  %30 = call i32 @send_msg_response(ptr noundef nonnull %3, i32 noundef 4026, ptr noundef %23) #13
  %.not27 = icmp eq ptr %23, null
  br i1 %.not27, label %.sink.split, label %31

31:                                               ; preds = %29
  call void @list_destroy(ptr noundef nonnull %23) #13
  br label %.sink.split

.sink.split:                                      ; preds = %29, %31, %12
  call void @slurm_free_msg_members(ptr noundef nonnull %3) #13
  br label %32

32:                                               ; preds = %.sink.split, %2
  call void @llvm.lifetime.end.p0(i64 424, ptr nonnull %3) #13
  ret void
}